; Function Attrs: nounwind uwtable
define hidden void @zif_ob_get_length(ptr noundef readonly captures(none) %0, ptr noundef writeonly captures(none) %1) local_unnamed_addr #0 {
  %3 = getelementptr inbounds nuw i8, ptr %0, i64 44
  %4 = load i32, ptr %3, align 4, !tbaa !8
  %.not = icmp eq i32 %4, 0
  br i1 %.not, label %.critedge, label %5, !prof !113

5:                                                ; preds = %2
  tail call void @zend_wrong_parameters_none_error() #22
  %6 = load ptr, ptr getelementptr inbounds nuw (i8, ptr @executor_globals, i64 960), align 8, !tbaa !112
  %7 = icmp ne ptr %6, null
  tail call void @llvm.assume(i1 %7)
  br label %14

.critedge:                                        ; preds = %2
  %8 = load ptr, ptr getelementptr inbounds nuw (i8, ptr @output_globals, i64 24), align 8, !tbaa !46
  %.not.i = icmp eq ptr %8, null
  br i1 %.not.i, label %12, label %php_output_get_length.exit

php_output_get_length.exit:                       ; preds = %.critedge
  %9 = getelementptr inbounds nuw i8, ptr %8, i64 40
  %10 = load i64, ptr %9, align 8, !tbaa !64
  store i64 %10, ptr %1, align 8, !tbaa !8
  %11 = getelementptr inbounds nuw i8, ptr %1, i64 8
  store i32 4, ptr %11, align 8, !tbaa !8
  br label %14

12:                                               ; preds = %.critedge
  %13 = getelementptr inbounds nuw i8, ptr %1, i64 8
  store i32 2, ptr %13, align 8, !tbaa !8
  br label %14

14:                                               ; preds = %php_output_get_length.exit, %12, %5
  ret void
}